; Function Attrs: nounwind uwtable
define range(i32 0, 2) i32 @Msat_IntVecPushUnique(ptr noundef captures(none) %0, i32 noundef %1) local_unnamed_addr #7 {
  %3 = getelementptr inbounds nuw i8, ptr %0, i64 8
  %4 = load i32, ptr %3, align 8, !tbaa !3
  %5 = icmp sgt i32 %4, 0
  br i1 %5, label %.lr.ph, label %._crit_edge

.lr.ph:                                           ; preds = %2
  %6 = load ptr, ptr %0, align 8, !tbaa !11
  %wide.trip.count = zext nneg i32 %4 to i64
  br label %8

7:                                                ; preds = %8
  %indvars.iv.next = add nuw nsw i64 %indvars.iv, 1
  %exitcond.not = icmp eq i64 %indvars.iv.next, %wide.trip.count
  br i1 %exitcond.not, label %._crit_edge, label %8, !llvm.loop !15

8:                                                ; preds = %.lr.ph, %7
  %indvars.iv = phi i64 [ 0, %.lr.ph ], [ %indvars.iv.next, %7 ]
  %9 = getelementptr inbounds nuw i32, ptr %6, i64 %indvars.iv
  %10 = load i32, ptr %9, align 4, !tbaa !12
  %11 = icmp eq i32 %10, %1
  br i1 %11, label %.loopexit, label %7

._crit_edge:                                      ; preds = %7, %2
  %12 = getelementptr inbounds nuw i8, ptr %0, i64 12
  %13 = load i32, ptr %12, align 4, !tbaa !10
  %14 = icmp eq i32 %4, %13
  br i1 %14, label %15, label %.Msat_IntVecGrow.exit10_crit_edge.i

.Msat_IntVecGrow.exit10_crit_edge.i:              ; preds = %._crit_edge
  %.pre.i = load ptr, ptr %0, align 8, !tbaa !11
  br label %Msat_IntVecPush.exit

15:                                               ; preds = %._crit_edge
  %16 = icmp slt i32 %4, 16
  br i1 %16, label %17, label %24

17:                                               ; preds = %15
  %18 = load ptr, ptr %0, align 8, !tbaa !11
  %.not9.i.i = icmp eq ptr %18, null
  br i1 %.not9.i.i, label %21, label %19

19:                                               ; preds = %17
  %20 = tail call dereferenceable_or_null(64) ptr @realloc(ptr noundef nonnull %18, i64 noundef 64) #21
  br label %Msat_IntVecGrow.exit.i

21:                                               ; preds = %17
  %22 = tail call noalias dereferenceable_or_null(64) ptr @malloc(i64 noundef 64) #19
  br label %Msat_IntVecGrow.exit.i

Msat_IntVecGrow.exit.i:                           ; preds = %21, %19
  %23 = phi ptr [ %20, %19 ], [ %22, %21 ]
  store ptr %23, ptr %0, align 8, !tbaa !11
  store i32 16, ptr %12, align 4, !tbaa !10
  br label %Msat_IntVecPush.exit

24:                                               ; preds = %15
  %25 = shl nuw nsw i32 %4, 1
  %26 = load ptr, ptr %0, align 8, !tbaa !11
  %.not9.i9.i = icmp eq ptr %26, null
  %27 = zext nneg i32 %25 to i64
  %28 = shl nuw nsw i64 %27, 2
  br i1 %.not9.i9.i, label %31, label %29

29:                                               ; preds = %24
  %30 = tail call ptr @realloc(ptr noundef nonnull %26, i64 noundef %28) #21
  br label %33

31:                                               ; preds = %24
  %32 = tail call noalias ptr @malloc(i64 noundef %28) #19
  br label %33

33:                                               ; preds = %31, %29
  %34 = phi ptr [ %30, %29 ], [ %32, %31 ]
  store ptr %34, ptr %0, align 8, !tbaa !11
  store i32 %25, ptr %12, align 4, !tbaa !10
  br label %Msat_IntVecPush.exit

Msat_IntVecPush.exit:                             ; preds = %.Msat_IntVecGrow.exit10_crit_edge.i, %Msat_IntVecGrow.exit.i, %33
  %35 = phi ptr [ %.pre.i, %.Msat_IntVecGrow.exit10_crit_edge.i ], [ %34, %33 ], [ %23, %Msat_IntVecGrow.exit.i ]
  %36 = load i32, ptr %3, align 8, !tbaa !3
  %37 = add nsw i32 %36, 1
  store i32 %37, ptr %3, align 8, !tbaa !3
  %38 = sext i32 %36 to i64
  %39 = getelementptr inbounds i32, ptr %35, i64 %38
  store i32 %1, ptr %39, align 4, !tbaa !12
  br label %.loopexit

.loopexit:                                        ; preds = %8, %Msat_IntVecPush.exit
  %.08 = phi i32 [ 0, %Msat_IntVecPush.exit ], [ 1, %8 ]
  ret i32 %.08
}